; Function Attrs: nounwind sspstrong uwtable
define internal void @ahci_restart(ptr noundef %dma) #0 {
entry:
  %ncq_tfs2 = getelementptr inbounds nuw i8, ptr %dma, i64 2496
  br label %for.body

for.body:                                         ; preds = %entry, %for.inc
  %indvars.iv = phi i64 [ 0, %entry ], [ %indvars.iv.next, %for.inc ]
  %arrayidx = getelementptr [32 x %struct.NCQTransferState], ptr %ncq_tfs2, i64 0, i64 %indvars.iv
  %halt = getelementptr inbounds nuw i8, ptr %arrayidx, i64 108
  %0 = load i8, ptr %halt, align 4
  %tobool = trunc i8 %0 to i1
  br i1 %tobool, label %if.then, label %for.inc

if.then:                                          ; preds = %for.body
  tail call fastcc void @execute_ncq_command(ptr noundef %arrayidx)
  br label %for.inc

for.inc:                                          ; preds = %for.body, %if.then
  %indvars.iv.next = add nuw nsw i64 %indvars.iv, 1
  %exitcond.not = icmp eq i64 %indvars.iv.next, 32
  br i1 %exitcond.not, label %for.end, label %for.body, !llvm.loop !19

for.end:                                          ; preds = %for.inc
  ret void
}